target datalayout = "e-m:e-p270:32:32-p271:32:32-p272:64:64-i64:64-i128:128-f80:128-n8:16:32:64-S128"
target triple = "x86_64-pc-linux-gnu"

%struct.ImVector.12 = type { i32, i32, ptr }
%struct.ImGuiInputTextCallbackData = type { ptr, i32, i32, ptr, i16, i32, ptr, i32, i32, i8, i32, i32, i32 }

; Function Attrs: inlinehint mustprogress uwtable
define linkonce_odr dso_local void @_ZN8ImVectorIcE7reserveEi(ptr noundef nonnull align 8 dereferenceable(16) %0, i32 noundef %1) #11 comdat align 2 {
  %3 = alloca ptr, align 8
  %4 = alloca i32, align 4
  %5 = alloca ptr, align 8
  store ptr %0, ptr %3, align 8, !tbaa !444
  store i32 %1, ptr %4, align 4, !tbaa !33
  %6 = load ptr, ptr %3, align 8
  %7 = load i32, ptr %4, align 4, !tbaa !33
  %8 = getelementptr inbounds nuw %struct.ImVector.12, ptr %6, i32 0, i32 1
  %9 = load i32, ptr %8, align 4, !tbaa !446
  %10 = icmp sle i32 %7, %9
  br i1 %10, label %11, label %12

11:                                               ; preds = %2
  br label %35

12:                                               ; preds = %2
  call void @llvm.lifetime.start.p0(i64 8, ptr %5) #7
  %13 = load i32, ptr %4, align 4, !tbaa !33
  %14 = sext i32 %13 to i64
  %15 = mul i64 %14, 1
  %16 = call noundef ptr @_ZN5ImGui8MemAllocEm(i64 noundef %15)
  store ptr %16, ptr %5, align 8, !tbaa !103
  %17 = getelementptr inbounds nuw %struct.ImVector.12, ptr %6, i32 0, i32 2
  %18 = load ptr, ptr %17, align 8, !tbaa !449
  %19 = icmp ne ptr %18, null
  br i1 %19, label %20, label %30

20:                                               ; preds = %12
  %21 = load ptr, ptr %5, align 8, !tbaa !103
  %22 = getelementptr inbounds nuw %struct.ImVector.12, ptr %6, i32 0, i32 2
  %23 = load ptr, ptr %22, align 8, !tbaa !449
  %24 = getelementptr inbounds nuw %struct.ImVector.12, ptr %6, i32 0, i32 0
  %25 = load i32, ptr %24, align 8, !tbaa !448
  %26 = sext i32 %25 to i64
  %27 = mul i64 %26, 1
  call void @llvm.memcpy.p0.p0.i64(ptr align 1 %21, ptr align 1 %23, i64 %27, i1 false)
  %28 = getelementptr inbounds nuw %struct.ImVector.12, ptr %6, i32 0, i32 2
  %29 = load ptr, ptr %28, align 8, !tbaa !449
  call void @_ZN5ImGui7MemFreeEPv(ptr noundef %29)
  br label %30

30:                                               ; preds = %20, %12
  %31 = load ptr, ptr %5, align 8, !tbaa !103
  %32 = getelementptr inbounds nuw %struct.ImVector.12, ptr %6, i32 0, i32 2
  store ptr %31, ptr %32, align 8, !tbaa !449
  %33 = load i32, ptr %4, align 4, !tbaa !33
  %34 = getelementptr inbounds nuw %struct.ImVector.12, ptr %6, i32 0, i32 1
  store i32 %33, ptr %34, align 4, !tbaa !446
  call void @llvm.lifetime.end.p0(i64 8, ptr %5) #7
  br label %35

35:                                               ; preds = %30, %11
  ret void
}

; Function Attrs: inlinehint mustprogress nounwind uwtable
define linkonce_odr dso_local noundef i32 @_ZNK8ImVectorIcE14_grow_capacityEi(ptr noundef nonnull align 8 dereferenceable(16) %0, i32 noundef %1) #6 comdat align 2 {
  %3 = alloca ptr, align 8
  %4 = alloca i32, align 4
  %5 = alloca i32, align 4
  store ptr %0, ptr %3, align 8, !tbaa !444
  store i32 %1, ptr %4, align 4, !tbaa !33
  %6 = load ptr, ptr %3, align 8
  call void @llvm.lifetime.start.p0(i64 4, ptr %5) #7
  %7 = getelementptr inbounds nuw %struct.ImVector.12, ptr %6, i32 0, i32 1
  %8 = load i32, ptr %7, align 4, !tbaa !446
  %9 = icmp ne i32 %8, 0
  br i1 %9, label %10, label %17

10:                                               ; preds = %2
  %11 = getelementptr inbounds nuw %struct.ImVector.12, ptr %6, i32 0, i32 1
  %12 = load i32, ptr %11, align 4, !tbaa !446
  %13 = getelementptr inbounds nuw %struct.ImVector.12, ptr %6, i32 0, i32 1
  %14 = load i32, ptr %13, align 4, !tbaa !446
  %15 = sdiv i32 %14, 2
  %16 = add nsw i32 %12, %15
  br label %18

17:                                               ; preds = %2
  br label %18

18:                                               ; preds = %17, %10
  %19 = phi i32 [ %16, %10 ], [ 8, %17 ]
  store i32 %19, ptr %5, align 4, !tbaa !33
  %20 = load i32, ptr %5, align 4, !tbaa !33
  %21 = load i32, ptr %4, align 4, !tbaa !33
  %22 = icmp sgt i32 %20, %21
  br i1 %22, label %23, label %25

23:                                               ; preds = %18
  %24 = load i32, ptr %5, align 4, !tbaa !33
  br label %27

25:                                               ; preds = %18
  %26 = load i32, ptr %4, align 4, !tbaa !33
  br label %27

27:                                               ; preds = %25, %23
  %28 = phi i32 [ %24, %23 ], [ %26, %25 ]
  call void @llvm.lifetime.end.p0(i64 4, ptr %5) #7
  ret i32 %28
}

; Function Attrs: inlinehint mustprogress nounwind uwtable
define linkonce_odr dso_local noundef ptr @_ZN8ImVectorIcE5beginEv(ptr noundef nonnull align 8 dereferenceable(16) %0) #6 comdat align 2 {
  %2 = alloca ptr, align 8
  store ptr %0, ptr %2, align 8, !tbaa !444
  %3 = load ptr, ptr %2, align 8
  %4 = getelementptr inbounds nuw %struct.ImVector.12, ptr %3, i32 0, i32 2
  %5 = load ptr, ptr %4, align 8, !tbaa !449
  ret ptr %5
}

; Function Attrs: inlinehint mustprogress uwtable
define linkonce_odr dso_local void @_ZN8ImVectorIcE6resizeEi(ptr noundef nonnull align 8 dereferenceable(16) %0, i32 noundef %1) #11 comdat align 2 {
  %3 = alloca ptr, align 8
  %4 = alloca i32, align 4
  store ptr %0, ptr %3, align 8, !tbaa !444
  store i32 %1, ptr %4, align 4, !tbaa !33
  %5 = load ptr, ptr %3, align 8
  %6 = load i32, ptr %4, align 4, !tbaa !33
  %7 = getelementptr inbounds nuw %struct.ImVector.12, ptr %5, i32 0, i32 1
  %8 = load i32, ptr %7, align 4, !tbaa !446
  %9 = icmp sgt i32 %6, %8
  br i1 %9, label %10, label %13

10:                                               ; preds = %2
  %11 = load i32, ptr %4, align 4, !tbaa !33
  %12 = call noundef i32 @_ZNK8ImVectorIcE14_grow_capacityEi(ptr noundef nonnull align 8 dereferenceable(16) %5, i32 noundef %11)
  call void @_ZN8ImVectorIcE7reserveEi(ptr noundef nonnull align 8 dereferenceable(16) %5, i32 noundef %12)
  br label %13

13:                                               ; preds = %10, %2
  %14 = load i32, ptr %4, align 4, !tbaa !33
  %15 = getelementptr inbounds nuw %struct.ImVector.12, ptr %5, i32 0, i32 0
  store i32 %14, ptr %15, align 8, !tbaa !448
  ret void
}

; Function Attrs: mustprogress uwtable
define internal noundef i32 @_ZZL21ShowDemoWindowWidgetsP19ImGuiDemoWindowDataEN5Funcs16MyResizeCallbackE_0P26ImGuiInputTextCallbackData(ptr noundef %0) #0 align 2 {
  %2 = alloca ptr, align 8
  %3 = alloca ptr, align 8
  store ptr %0, ptr %2, align 8, !tbaa !433
  %4 = load ptr, ptr %2, align 8, !tbaa !433
  %5 = getelementptr inbounds nuw %struct.ImGuiInputTextCallbackData, ptr %4, i32 0, i32 1
  %6 = load i32, ptr %5, align 8, !tbaa !437
  %7 = icmp eq i32 %6, 2097152
  br i1 %7, label %8, label %20

8:                                                ; preds = %1
  call void @llvm.lifetime.start.p0(i64 8, ptr %3) #7
  %9 = load ptr, ptr %2, align 8, !tbaa !433
  %10 = getelementptr inbounds nuw %struct.ImGuiInputTextCallbackData, ptr %9, i32 0, i32 3
  %11 = load ptr, ptr %10, align 8, !tbaa !443
  store ptr %11, ptr %3, align 8, !tbaa !444
  %12 = load ptr, ptr %3, align 8, !tbaa !444
  %13 = load ptr, ptr %2, align 8, !tbaa !433
  %14 = getelementptr inbounds nuw %struct.ImGuiInputTextCallbackData, ptr %13, i32 0, i32 8
  %15 = load i32, ptr %14, align 4, !tbaa !514
  call void @_ZN8ImVectorIcE6resizeEi(ptr noundef nonnull align 8 dereferenceable(16) %12, i32 noundef %15)
  %16 = load ptr, ptr %3, align 8, !tbaa !444
  %17 = call noundef ptr @_ZN8ImVectorIcE5beginEv(ptr noundef nonnull align 8 dereferenceable(16) %16)
  %18 = load ptr, ptr %2, align 8, !tbaa !433
  %19 = getelementptr inbounds nuw %struct.ImGuiInputTextCallbackData, ptr %18, i32 0, i32 6
  store ptr %17, ptr %19, align 8, !tbaa !441
  call void @llvm.lifetime.end.p0(i64 8, ptr %3) #7
  br label %20

20:                                               ; preds = %8, %1
  ret i32 0
}